#include <math.h>
#include <stdio.h>
#include <stdlib.h>
#include <string.h>

int main() 
{ 
    int i,n,t; 
    char c[10000]; 
    gets(c); 
    n=strlen(c); 
    t=0; 
    for(i=0;i<=n;i++) 
	{ 
      if(c[i]!=' '&&c[i]!='\0') 
	  { 
         t=t+1; 
	  } 
      if(c[i]==' ') 
	  { 
         if(c[i-1]!=' ')  
		 {
			 printf("%d,",t); 
             t=0; 
		 }
		 
	  } 
      if(c[i]=='\0') 
	  { 
          printf("%d",t); 
	      t=0;
	  } 
	} 
}
